target datalayout = "e-m:e-p270:32:32-p271:32:32-p272:64:64-i64:64-i128:128-f80:128-n8:16:32:64-S128"
target triple = "x86_64-pc-linux-gnu"

%struct.ForEachState = type { ptr, i32 }
%struct.Query = type { i32, i32, i32, i64, i8, ptr, i32, i8, i8, i8, i8, i8, i8, i8, i8, i8, i8, i8, ptr, ptr, ptr, ptr, ptr, i32, ptr, ptr, i32, ptr, ptr, ptr, ptr, ptr, i8, ptr, ptr, ptr, ptr, ptr, ptr, ptr, i32, ptr, ptr, ptr, ptr, i32, i32 }
%struct.List = type { i32, i32, i32, ptr, [0 x %union.ListCell] }
%union.ListCell = type { ptr }
%struct.Node = type { i32 }
%struct.Var = type { %struct.Expr, i32, i16, i32, i32, i32, ptr, i32, i32, i32, i16, i32 }
%struct.Expr = type { i32 }
%struct.FromExpr = type { i32, ptr, ptr }
%struct.RangeTblRef = type { i32, i32 }
%struct.TargetEntry = type { %struct.Expr, ptr, i16, ptr, i32, i32, i16, i8 }

@.str.31 = private unnamed_addr constant [37 x i8] c"Junk view columns are not updatable.\00", align 1
@.str.32 = private unnamed_addr constant [76 x i8] c"View columns that are not columns of their base relation are not updatable.\00", align 1
@.str.33 = private unnamed_addr constant [61 x i8] c"View columns that refer to system columns are not updatable.\00", align 1
@.str.34 = private unnamed_addr constant [65 x i8] c"View columns that return whole-row references are not updatable.\00", align 1

; Function Attrs: nounwind uwtable
define internal ptr @view_col_is_auto_updatable(ptr noundef %0, ptr noundef %1) #0 {
  %3 = alloca ptr, align 8
  %4 = alloca ptr, align 8
  %5 = alloca ptr, align 8
  %6 = alloca ptr, align 8
  %7 = alloca i32, align 4
  store ptr %0, ptr %4, align 8
  store ptr %1, ptr %5, align 8
  call void @llvm.lifetime.start.p0(i64 8, ptr %6) #9
  %8 = load ptr, ptr %5, align 8
  %9 = getelementptr inbounds nuw %struct.TargetEntry, ptr %8, i32 0, i32 1
  %10 = load ptr, ptr %9, align 8
  store ptr %10, ptr %6, align 8
  %11 = load ptr, ptr %5, align 8
  %12 = getelementptr inbounds nuw %struct.TargetEntry, ptr %11, i32 0, i32 7
  %13 = load i8, ptr %12, align 2, !range !4, !noundef !5
  %14 = trunc i8 %13 to i1
  br i1 %14, label %15, label %16

15:                                               ; preds = %2
  store ptr @.str.31, ptr %3, align 8
  store i32 1, ptr %7, align 4
  br label %50

16:                                               ; preds = %2
  %17 = load ptr, ptr %6, align 8
  %18 = getelementptr inbounds nuw %struct.Node, ptr %17, i32 0, i32 0
  %19 = load i32, ptr %18, align 4
  %20 = icmp eq i32 %19, 6
  br i1 %20, label %21, label %34

21:                                               ; preds = %16
  %22 = load ptr, ptr %6, align 8
  %23 = getelementptr inbounds nuw %struct.Var, ptr %22, i32 0, i32 1
  %24 = load i32, ptr %23, align 4
  %25 = load ptr, ptr %4, align 8
  %26 = getelementptr inbounds nuw %struct.RangeTblRef, ptr %25, i32 0, i32 1
  %27 = load i32, ptr %26, align 4
  %28 = icmp ne i32 %24, %27
  br i1 %28, label %34, label %29

29:                                               ; preds = %21
  %30 = load ptr, ptr %6, align 8
  %31 = getelementptr inbounds nuw %struct.Var, ptr %30, i32 0, i32 7
  %32 = load i32, ptr %31, align 8
  %33 = icmp ne i32 %32, 0
  br i1 %33, label %34, label %35

34:                                               ; preds = %29, %21, %16
  store ptr @.str.32, ptr %3, align 8
  store i32 1, ptr %7, align 4
  br label %50

35:                                               ; preds = %29
  %36 = load ptr, ptr %6, align 8
  %37 = getelementptr inbounds nuw %struct.Var, ptr %36, i32 0, i32 2
  %38 = load i16, ptr %37, align 8
  %39 = sext i16 %38 to i32
  %40 = icmp slt i32 %39, 0
  br i1 %40, label %41, label %42

41:                                               ; preds = %35
  store ptr @.str.33, ptr %3, align 8
  store i32 1, ptr %7, align 4
  br label %50

42:                                               ; preds = %35
  %43 = load ptr, ptr %6, align 8
  %44 = getelementptr inbounds nuw %struct.Var, ptr %43, i32 0, i32 2
  %45 = load i16, ptr %44, align 8
  %46 = sext i16 %45 to i32
  %47 = icmp eq i32 %46, 0
  br i1 %47, label %48, label %49

48:                                               ; preds = %42
  store ptr @.str.34, ptr %3, align 8
  store i32 1, ptr %7, align 4
  br label %50

49:                                               ; preds = %42
  store ptr null, ptr %3, align 8
  store i32 1, ptr %7, align 4
  br label %50

50:                                               ; preds = %49, %48, %41, %34, %15
  call void @llvm.lifetime.end.p0(i64 8, ptr %6) #9
  %51 = load ptr, ptr %3, align 8
  ret ptr %51
}

; Function Attrs: inlinehint nounwind uwtable
define internal ptr @list_nth_cell(ptr noundef %0, i32 noundef %1) #5 {
  %3 = alloca ptr, align 8
  %4 = alloca i32, align 4
  store ptr %0, ptr %3, align 8
  store i32 %1, ptr %4, align 4
  %5 = load ptr, ptr %3, align 8
  %6 = getelementptr inbounds nuw %struct.List, ptr %5, i32 0, i32 3
  %7 = load ptr, ptr %6, align 8
  %8 = load i32, ptr %4, align 4
  %9 = sext i32 %8 to i64
  %10 = getelementptr inbounds %union.ListCell, ptr %7, i64 %9
  ret ptr %10
}

; Function Attrs: nounwind uwtable
define internal ptr @view_cols_are_auto_updatable(ptr noundef %0, ptr noundef %1, ptr noundef %2, ptr noundef %3) #0 {
  %5 = alloca ptr, align 8
  %6 = alloca ptr, align 8
  %7 = alloca ptr, align 8
  %8 = alloca ptr, align 8
  %9 = alloca ptr, align 8
  %10 = alloca ptr, align 8
  %11 = alloca i16, align 2
  %12 = alloca ptr, align 8
  %13 = alloca %struct.ForEachState, align 8
  %14 = alloca i32, align 4
  %15 = alloca ptr, align 8
  %16 = alloca ptr, align 8
  store ptr %0, ptr %6, align 8
  store ptr %1, ptr %7, align 8
  store ptr %2, ptr %8, align 8
  store ptr %3, ptr %9, align 8
  call void @llvm.lifetime.start.p0(i64 8, ptr %10) #9
  call void @llvm.lifetime.start.p0(i64 2, ptr %11) #9
  call void @llvm.lifetime.start.p0(i64 8, ptr %12) #9
  %17 = load ptr, ptr %6, align 8
  %18 = getelementptr inbounds nuw %struct.Query, ptr %17, i32 0, i32 21
  %19 = load ptr, ptr %18, align 8
  %20 = getelementptr inbounds nuw %struct.FromExpr, ptr %19, i32 0, i32 1
  %21 = load ptr, ptr %20, align 8
  %22 = call ptr @list_nth_cell(ptr noundef %21, i32 noundef 0)
  %23 = load ptr, ptr %22, align 8
  store ptr %23, ptr %10, align 8
  %24 = load ptr, ptr %8, align 8
  %25 = icmp ne ptr %24, null
  br i1 %25, label %26, label %28

26:                                               ; preds = %4
  %27 = load ptr, ptr %8, align 8
  store ptr null, ptr %27, align 8
  br label %28

28:                                               ; preds = %26, %4
  %29 = load ptr, ptr %9, align 8
  %30 = icmp ne ptr %29, null
  br i1 %30, label %31, label %33

31:                                               ; preds = %28
  %32 = load ptr, ptr %9, align 8
  store ptr null, ptr %32, align 8
  br label %33

33:                                               ; preds = %31, %28
  store i16 7, ptr %11, align 2
  call void @llvm.lifetime.start.p0(i64 16, ptr %13) #9
  %34 = getelementptr inbounds nuw %struct.ForEachState, ptr %13, i32 0, i32 0
  %35 = load ptr, ptr %6, align 8
  %36 = getelementptr inbounds nuw %struct.Query, ptr %35, i32 0, i32 25
  %37 = load ptr, ptr %36, align 8
  store ptr %37, ptr %34, align 8
  %38 = getelementptr inbounds nuw %struct.ForEachState, ptr %13, i32 0, i32 1
  store i32 0, ptr %38, align 8
  %39 = getelementptr i8, ptr %13, i64 12
  call void @llvm.memset.p0.i64(ptr align 4 %39, i8 0, i64 4, i1 false)
  br label %40

40:                                               ; preds = %107, %33
  %41 = getelementptr inbounds nuw %struct.ForEachState, ptr %13, i32 0, i32 0
  %42 = load ptr, ptr %41, align 8
  %43 = icmp ne ptr %42, null
  br i1 %43, label %44, label %61

44:                                               ; preds = %40
  %45 = getelementptr inbounds nuw %struct.ForEachState, ptr %13, i32 0, i32 1
  %46 = load i32, ptr %45, align 8
  %47 = getelementptr inbounds nuw %struct.ForEachState, ptr %13, i32 0, i32 0
  %48 = load ptr, ptr %47, align 8
  %49 = getelementptr inbounds nuw %struct.List, ptr %48, i32 0, i32 1
  %50 = load i32, ptr %49, align 4
  %51 = icmp slt i32 %46, %50
  br i1 %51, label %52, label %61

52:                                               ; preds = %44
  %53 = getelementptr inbounds nuw %struct.ForEachState, ptr %13, i32 0, i32 0
  %54 = load ptr, ptr %53, align 8
  %55 = getelementptr inbounds nuw %struct.List, ptr %54, i32 0, i32 3
  %56 = load ptr, ptr %55, align 8
  %57 = getelementptr inbounds nuw %struct.ForEachState, ptr %13, i32 0, i32 1
  %58 = load i32, ptr %57, align 8
  %59 = sext i32 %58 to i64
  %60 = getelementptr inbounds %union.ListCell, ptr %56, i64 %59
  store ptr %60, ptr %12, align 8
  br label %62

61:                                               ; preds = %44, %40
  store ptr null, ptr %12, align 8
  br label %62

62:                                               ; preds = %61, %52
  %63 = phi i32 [ 1, %52 ], [ 0, %61 ]
  %64 = icmp ne i32 %63, 0
  br i1 %64, label %66, label %65

65:                                               ; preds = %62
  store i32 2, ptr %14, align 4
  br label %111

66:                                               ; preds = %62
  call void @llvm.lifetime.start.p0(i64 8, ptr %15) #9
  %67 = load ptr, ptr %12, align 8
  %68 = load ptr, ptr %67, align 8
  store ptr %68, ptr %15, align 8
  call void @llvm.lifetime.start.p0(i64 8, ptr %16) #9
  %69 = load i16, ptr %11, align 2
  %70 = add i16 %69, 1
  store i16 %70, ptr %11, align 2
  %71 = load ptr, ptr %10, align 8
  %72 = load ptr, ptr %15, align 8
  %73 = call ptr @view_col_is_auto_updatable(ptr noundef %71, ptr noundef %72)
  store ptr %73, ptr %16, align 8
  %74 = load ptr, ptr %16, align 8
  %75 = icmp eq ptr %74, null
  br i1 %75, label %76, label %87

76:                                               ; preds = %66
  %77 = load ptr, ptr %8, align 8
  %78 = icmp ne ptr %77, null
  br i1 %78, label %79, label %86

79:                                               ; preds = %76
  %80 = load ptr, ptr %8, align 8
  %81 = load ptr, ptr %80, align 8
  %82 = load i16, ptr %11, align 2
  %83 = sext i16 %82 to i32
  %84 = call ptr @bms_add_member(ptr noundef %81, i32 noundef %83)
  %85 = load ptr, ptr %8, align 8
  store ptr %84, ptr %85, align 8
  br label %86

86:                                               ; preds = %79, %76
  br label %103

87:                                               ; preds = %66
  %88 = load i16, ptr %11, align 2
  %89 = sext i16 %88 to i32
  %90 = load ptr, ptr %7, align 8
  %91 = call zeroext i1 @bms_is_member(i32 noundef %89, ptr noundef %90)
  br i1 %91, label %92, label %102

92:                                               ; preds = %87
  %93 = load ptr, ptr %9, align 8
  %94 = icmp ne ptr %93, null
  br i1 %94, label %95, label %100

95:                                               ; preds = %92
  %96 = load ptr, ptr %15, align 8
  %97 = getelementptr inbounds nuw %struct.TargetEntry, ptr %96, i32 0, i32 3
  %98 = load ptr, ptr %97, align 8
  %99 = load ptr, ptr %9, align 8
  store ptr %98, ptr %99, align 8
  br label %100

100:                                              ; preds = %95, %92
  %101 = load ptr, ptr %16, align 8
  store ptr %101, ptr %5, align 8
  store i32 1, ptr %14, align 4
  br label %104

102:                                              ; preds = %87
  br label %103

103:                                              ; preds = %102, %86
  store i32 0, ptr %14, align 4
  br label %104

104:                                              ; preds = %103, %100
  call void @llvm.lifetime.end.p0(i64 8, ptr %16) #9
  call void @llvm.lifetime.end.p0(i64 8, ptr %15) #9
  %105 = load i32, ptr %14, align 4
  switch i32 %105, label %111 [
    i32 0, label %106
  ]

106:                                              ; preds = %104
  br label %107

107:                                              ; preds = %106
  %108 = getelementptr inbounds nuw %struct.ForEachState, ptr %13, i32 0, i32 1
  %109 = load i32, ptr %108, align 8
  %110 = add i32 %109, 1
  store i32 %110, ptr %108, align 8
  br label %40, !llvm.loop !15

111:                                              ; preds = %104, %65
  call void @llvm.lifetime.end.p0(i64 16, ptr %13) #9
  %112 = load i32, ptr %14, align 4
  switch i32 %112, label %114 [
    i32 2, label %113
  ]

113:                                              ; preds = %111
  store ptr null, ptr %5, align 8
  store i32 1, ptr %14, align 4
  br label %114

114:                                              ; preds = %113, %111
  call void @llvm.lifetime.end.p0(i64 8, ptr %12) #9
  call void @llvm.lifetime.end.p0(i64 2, ptr %11) #9
  call void @llvm.lifetime.end.p0(i64 8, ptr %10) #9
  %115 = load ptr, ptr %5, align 8
  ret ptr %115
}