; Function Attrs: nounwind uwtable
define internal fastcc void @view_cols_are_auto_updatable(ptr noundef readonly captures(none) %0, ptr noundef %1, ptr noundef captures(address_is_null) %2, ptr noundef writeonly captures(address_is_null) %3) unnamed_addr #0 {
  %5 = getelementptr inbounds nuw i8, ptr %0, i64 80
  %6 = load ptr, ptr %5, align 8
  %7 = getelementptr inbounds nuw i8, ptr %6, i64 8
  %8 = load ptr, ptr %7, align 8
  %9 = getelementptr i8, ptr %8, i64 16
  %.val = load ptr, ptr %9, align 8
  %10 = load ptr, ptr %.val, align 8
  %.not = icmp eq ptr %2, null
  br i1 %.not, label %12, label %11

11:                                               ; preds = %4
  store ptr null, ptr %2, align 8
  br label %12

12:                                               ; preds = %11, %4
  %.not38.not = icmp eq ptr %3, null
  br i1 %.not38.not, label %14, label %13

13:                                               ; preds = %12
  store ptr null, ptr %3, align 8
  br label %14

14:                                               ; preds = %13, %12
  %15 = getelementptr inbounds nuw i8, ptr %0, i64 112
  %16 = load ptr, ptr %15, align 8
  %.not39 = icmp eq ptr %16, null
  br i1 %.not39, label %.thread58, label %.lr.ph

.lr.ph:                                           ; preds = %14
  %17 = getelementptr inbounds nuw i8, ptr %16, i64 4
  %18 = getelementptr inbounds nuw i8, ptr %16, i64 16
  %19 = getelementptr inbounds nuw i8, ptr %10, i64 4
  %20 = load i32, ptr %17, align 4
  %21 = icmp sgt i32 %20, 0
  br i1 %.not, label %.lr.ph.split.us, label %.lr.ph.split

.lr.ph.split.us:                                  ; preds = %.lr.ph
  br i1 %.not38.not, label %.lr.ph.split.us.split.us.split, label %.lr.ph.split.us.split.split

.lr.ph.split.us.split.us.split:                   ; preds = %.lr.ph.split.us
  br i1 %21, label %.lr.ph148, label %.thread58

.lr.ph148:                                        ; preds = %.lr.ph.split.us.split.us.split, %.thread50.us.us
  %22 = phi i32 [ %45, %.thread50.us.us ], [ %20, %.lr.ph.split.us.split.us.split ]
  %indvars.iv162 = phi i64 [ %indvars.iv.next163, %.thread50.us.us ], [ 0, %.lr.ph.split.us.split.us.split ]
  %.02862.us.us146 = phi i16 [ %26, %.thread50.us.us ], [ 7, %.lr.ph.split.us.split.us.split ]
  %23 = load ptr, ptr %18, align 8
  %24 = getelementptr inbounds nuw %union.ListCell, ptr %23, i64 %indvars.iv162
  %25 = load ptr, ptr %24, align 8
  %26 = add i16 %.02862.us.us146, 1
  %27 = getelementptr i8, ptr %25, i64 8
  %.val42.us.us = load ptr, ptr %27, align 8
  %28 = getelementptr i8, ptr %25, i64 42
  %.val43.us.us = load i8, ptr %28, align 2, !range !4, !noundef !5
  %29 = trunc nuw i8 %.val43.us.us to i1
  br i1 %29, label %select.unfold.us.us, label %30

30:                                               ; preds = %.lr.ph148
  %31 = load i32, ptr %.val42.us.us, align 4
  %32 = icmp eq i32 %31, 6
  br i1 %32, label %33, label %select.unfold.us.us

33:                                               ; preds = %30
  %34 = getelementptr inbounds nuw i8, ptr %.val42.us.us, i64 4
  %35 = load i32, ptr %34, align 4
  %36 = load i32, ptr %19, align 4
  %.not.i.us.us = icmp eq i32 %35, %36
  br i1 %.not.i.us.us, label %37, label %select.unfold.us.us

37:                                               ; preds = %33
  %38 = getelementptr inbounds nuw i8, ptr %.val42.us.us, i64 32
  %39 = load i32, ptr %38, align 8
  %.not10.i.us.us = icmp eq i32 %39, 0
  br i1 %.not10.i.us.us, label %40, label %select.unfold.us.us

40:                                               ; preds = %37
  %41 = getelementptr inbounds nuw i8, ptr %.val42.us.us, i64 8
  %42 = load i16, ptr %41, align 8
  %or.cond = icmp slt i16 %42, 1
  br i1 %or.cond, label %select.unfold.us.us, label %.thread50.us.us

select.unfold.us.us:                              ; preds = %40, %37, %33, %30, %.lr.ph148
  %43 = sext i16 %26 to i32
  %44 = tail call zeroext i1 @bms_is_member(i32 noundef %43, ptr noundef %1) #10
  br i1 %44, label %.thread58, label %select.unfold.us.us..thread50.us.us_crit_edge

select.unfold.us.us..thread50.us.us_crit_edge:    ; preds = %select.unfold.us.us
  %.pre164 = load i32, ptr %17, align 4
  br label %.thread50.us.us

.thread50.us.us:                                  ; preds = %40, %select.unfold.us.us..thread50.us.us_crit_edge
  %45 = phi i32 [ %.pre164, %select.unfold.us.us..thread50.us.us_crit_edge ], [ %22, %40 ]
  %indvars.iv.next163 = add nuw nsw i64 %indvars.iv162, 1
  %46 = sext i32 %45 to i64
  %47 = icmp slt i64 %indvars.iv.next163, %46
  br i1 %47, label %.lr.ph148, label %.thread58

.lr.ph.split.us.split.split:                      ; preds = %.lr.ph.split.us
  br i1 %21, label %.lr.ph141, label %.thread58

.lr.ph141:                                        ; preds = %.lr.ph.split.us.split.split, %.thread50.us
  %48 = phi i32 [ %71, %.thread50.us ], [ %20, %.lr.ph.split.us.split.split ]
  %indvars.iv160 = phi i64 [ %indvars.iv.next161, %.thread50.us ], [ 0, %.lr.ph.split.us.split.split ]
  %.02862.us139 = phi i16 [ %52, %.thread50.us ], [ 7, %.lr.ph.split.us.split.split ]
  %49 = load ptr, ptr %18, align 8
  %50 = getelementptr inbounds nuw %union.ListCell, ptr %49, i64 %indvars.iv160
  %51 = load ptr, ptr %50, align 8
  %52 = add i16 %.02862.us139, 1
  %53 = getelementptr i8, ptr %51, i64 8
  %.val42.us = load ptr, ptr %53, align 8
  %54 = getelementptr i8, ptr %51, i64 42
  %.val43.us = load i8, ptr %54, align 2, !range !4, !noundef !5
  %55 = trunc nuw i8 %.val43.us to i1
  br i1 %55, label %select.unfold.us, label %56

56:                                               ; preds = %.lr.ph141
  %57 = load i32, ptr %.val42.us, align 4
  %58 = icmp eq i32 %57, 6
  br i1 %58, label %59, label %select.unfold.us

59:                                               ; preds = %56
  %60 = getelementptr inbounds nuw i8, ptr %.val42.us, i64 4
  %61 = load i32, ptr %60, align 4
  %62 = load i32, ptr %19, align 4
  %.not.i.us = icmp eq i32 %61, %62
  br i1 %.not.i.us, label %63, label %select.unfold.us

63:                                               ; preds = %59
  %64 = getelementptr inbounds nuw i8, ptr %.val42.us, i64 32
  %65 = load i32, ptr %64, align 8
  %.not10.i.us = icmp eq i32 %65, 0
  br i1 %.not10.i.us, label %66, label %select.unfold.us

66:                                               ; preds = %63
  %67 = getelementptr inbounds nuw i8, ptr %.val42.us, i64 8
  %68 = load i16, ptr %67, align 8
  %or.cond9 = icmp slt i16 %68, 1
  br i1 %or.cond9, label %select.unfold.us, label %.thread50.us

select.unfold.us:                                 ; preds = %66, %63, %59, %56, %.lr.ph141
  %69 = sext i16 %52 to i32
  %70 = tail call zeroext i1 @bms_is_member(i32 noundef %69, ptr noundef %1) #10
  br i1 %70, label %.thread54, label %select.unfold.us..thread50.us_crit_edge

select.unfold.us..thread50.us_crit_edge:          ; preds = %select.unfold.us
  %.pre = load i32, ptr %17, align 4
  br label %.thread50.us

.thread50.us:                                     ; preds = %66, %select.unfold.us..thread50.us_crit_edge
  %71 = phi i32 [ %.pre, %select.unfold.us..thread50.us_crit_edge ], [ %48, %66 ]
  %indvars.iv.next161 = add nuw nsw i64 %indvars.iv160, 1
  %72 = sext i32 %71 to i64
  %73 = icmp slt i64 %indvars.iv.next161, %72
  br i1 %73, label %.lr.ph141, label %.thread58

.lr.ph.split:                                     ; preds = %.lr.ph
  br i1 %.not38.not, label %.lr.ph.split.split.us.split, label %.lr.ph.split.split.split

.lr.ph.split.split.us.split:                      ; preds = %.lr.ph.split
  br i1 %21, label %.lr.ph116, label %.thread58

.lr.ph116:                                        ; preds = %.lr.ph.split.split.us.split, %.thread50.us81
  %indvars.iv158 = phi i64 [ %indvars.iv.next159, %.thread50.us81 ], [ 0, %.lr.ph.split.split.us.split ]
  %.02862.us71114 = phi i16 [ %77, %.thread50.us81 ], [ 7, %.lr.ph.split.split.us.split ]
  %74 = load ptr, ptr %18, align 8
  %75 = getelementptr inbounds nuw %union.ListCell, ptr %74, i64 %indvars.iv158
  %76 = load ptr, ptr %75, align 8
  %77 = add i16 %.02862.us71114, 1
  %78 = getelementptr i8, ptr %76, i64 8
  %.val42.us73 = load ptr, ptr %78, align 8
  %79 = getelementptr i8, ptr %76, i64 42
  %.val43.us74 = load i8, ptr %79, align 2, !range !4, !noundef !5
  %80 = trunc nuw i8 %.val43.us74 to i1
  br i1 %80, label %select.unfold.us78, label %81

81:                                               ; preds = %.lr.ph116
  %82 = load i32, ptr %.val42.us73, align 4
  %83 = icmp eq i32 %82, 6
  br i1 %83, label %84, label %select.unfold.us78

84:                                               ; preds = %81
  %85 = getelementptr inbounds nuw i8, ptr %.val42.us73, i64 4
  %86 = load i32, ptr %85, align 4
  %87 = load i32, ptr %19, align 4
  %.not.i.us75 = icmp eq i32 %86, %87
  br i1 %.not.i.us75, label %88, label %select.unfold.us78

88:                                               ; preds = %84
  %89 = getelementptr inbounds nuw i8, ptr %.val42.us73, i64 32
  %90 = load i32, ptr %89, align 8
  %.not10.i.us76 = icmp eq i32 %90, 0
  br i1 %.not10.i.us76, label %91, label %select.unfold.us78

91:                                               ; preds = %88
  %92 = getelementptr inbounds nuw i8, ptr %.val42.us73, i64 8
  %93 = load i16, ptr %92, align 8
  %or.cond10 = icmp slt i16 %93, 1
  br i1 %or.cond10, label %select.unfold.us78, label %view_col_is_auto_updatable.exit.us77

view_col_is_auto_updatable.exit.us77:             ; preds = %91
  %94 = load ptr, ptr %2, align 8
  %95 = sext i16 %77 to i32
  %96 = tail call ptr @bms_add_member(ptr noundef %94, i32 noundef %95) #10
  store ptr %96, ptr %2, align 8
  br label %.thread50.us81

select.unfold.us78:                               ; preds = %91, %88, %84, %81, %.lr.ph116
  %97 = sext i16 %77 to i32
  %98 = tail call zeroext i1 @bms_is_member(i32 noundef %97, ptr noundef %1) #10
  br i1 %98, label %.thread58, label %.thread50.us81

.thread50.us81:                                   ; preds = %select.unfold.us78, %view_col_is_auto_updatable.exit.us77
  %indvars.iv.next159 = add nuw nsw i64 %indvars.iv158, 1
  %99 = load i32, ptr %17, align 4
  %100 = sext i32 %99 to i64
  %101 = icmp slt i64 %indvars.iv.next159, %100
  br i1 %101, label %.lr.ph116, label %.thread58

.lr.ph.split.split.split:                         ; preds = %.lr.ph.split
  br i1 %21, label %.lr.ph110, label %.thread58

.lr.ph110:                                        ; preds = %.lr.ph.split.split.split, %.thread50
  %indvars.iv = phi i64 [ %indvars.iv.next, %.thread50 ], [ 0, %.lr.ph.split.split.split ]
  %.02862108 = phi i16 [ %105, %.thread50 ], [ 7, %.lr.ph.split.split.split ]
  %102 = load ptr, ptr %18, align 8
  %103 = getelementptr inbounds nuw %union.ListCell, ptr %102, i64 %indvars.iv
  %104 = load ptr, ptr %103, align 8
  %105 = add i16 %.02862108, 1
  %106 = getelementptr i8, ptr %104, i64 8
  %.val42 = load ptr, ptr %106, align 8
  %107 = getelementptr i8, ptr %104, i64 42
  %.val43 = load i8, ptr %107, align 2, !range !4, !noundef !5
  %108 = trunc nuw i8 %.val43 to i1
  br i1 %108, label %select.unfold, label %109

109:                                              ; preds = %.lr.ph110
  %110 = load i32, ptr %.val42, align 4
  %111 = icmp eq i32 %110, 6
  br i1 %111, label %112, label %select.unfold

112:                                              ; preds = %109
  %113 = getelementptr inbounds nuw i8, ptr %.val42, i64 4
  %114 = load i32, ptr %113, align 4
  %115 = load i32, ptr %19, align 4
  %.not.i = icmp eq i32 %114, %115
  br i1 %.not.i, label %116, label %select.unfold

116:                                              ; preds = %112
  %117 = getelementptr inbounds nuw i8, ptr %.val42, i64 32
  %118 = load i32, ptr %117, align 8
  %.not10.i = icmp eq i32 %118, 0
  br i1 %.not10.i, label %119, label %select.unfold

119:                                              ; preds = %116
  %120 = getelementptr inbounds nuw i8, ptr %.val42, i64 8
  %121 = load i16, ptr %120, align 8
  %or.cond11 = icmp slt i16 %121, 1
  br i1 %or.cond11, label %select.unfold, label %view_col_is_auto_updatable.exit

view_col_is_auto_updatable.exit:                  ; preds = %119
  %122 = load ptr, ptr %2, align 8
  %123 = sext i16 %105 to i32
  %124 = tail call ptr @bms_add_member(ptr noundef %122, i32 noundef %123) #10
  store ptr %124, ptr %2, align 8
  br label %.thread50

select.unfold:                                    ; preds = %.lr.ph110, %116, %112, %109, %119
  %125 = sext i16 %105 to i32
  %126 = tail call zeroext i1 @bms_is_member(i32 noundef %125, ptr noundef %1) #10
  br i1 %126, label %.thread54, label %.thread50

.thread54:                                        ; preds = %select.unfold, %select.unfold.us
  %.us-phi68 = phi ptr [ %51, %select.unfold.us ], [ %104, %select.unfold ]
  %127 = getelementptr inbounds nuw i8, ptr %.us-phi68, i64 24
  %128 = load ptr, ptr %127, align 8
  store ptr %128, ptr %3, align 8
  br label %.thread58

.thread50:                                        ; preds = %select.unfold, %view_col_is_auto_updatable.exit
  %indvars.iv.next = add nuw nsw i64 %indvars.iv, 1
  %129 = load i32, ptr %17, align 4
  %130 = sext i32 %129 to i64
  %131 = icmp slt i64 %indvars.iv.next, %130
  br i1 %131, label %.lr.ph110, label %.thread58

.thread58:                                        ; preds = %.thread50, %.thread50.us81, %select.unfold.us78, %.thread50.us, %.thread50.us.us, %select.unfold.us.us, %14, %.lr.ph.split.split.us.split, %.lr.ph.split.split.split, %.lr.ph.split.us.split.us.split, %.lr.ph.split.us.split.split, %.thread54
  ret void
}